"File: ENT_600.c     Assembler  Version HGASM0202      Page 1


   1  0000              ; Generated by holtek-gcc v3.19, Sun Apr 03 15:17:44 2022
   2  0000              ; 
   3  0000              ; Configuration:
   4  0000              ;       without long instruction
   5  0000              ;       Single ROM, Single RAM
   6  0000              ;       bits_per_rom_unit:14
   7  0000              ;       without mp1
   8  0000              ;       with tbhp, address(0x9)
   9  0000              ;          Use ret-const
  10  0000              ;       
  11  0000              ;       
  12  0000              ;       
  13  0000              ; use 'tabrdc' instead of 'tabrd'
  14  0000              ;       
  15  0000              
  16  0000              #pragma translator "holtek-gcc 4.6.4" "3.19" "build 20130711"
  17  0000              ; Rebuild 718
  18  0000              
  19  0000              ir equ [0]
  20  0000              mp equ [1]
  21  0000              sbp equ [7]
  22  0000              acc equ [5]
  23  0000              bp equ [7]
  24  0000              status equ [10]
  25  0000              c equ [10].0
  26  0000              ac equ [10].1
  27  0000              z equ [10].2
  28  0000              ov equ [10].3
  29  0000              intc equ [11]
  30  0000              
  31  0000              extern ra:byte
  32  0000              extern rb:byte
  33  0000              extern rc:byte
  34  0000              extern rd:byte
  35  0000              extern re:byte
  36  0000              extern rf:byte
  37  0000              extern rg:byte
  38  0000              extern rh:byte
  39  0000              extern _Crom2Prom:near
  40  0000              extern _Crom2PromNext:near
  41  0000              
  42  0000              RAMBANK 0 @HCCINIT, @HCCINIT0
  43  0000              
  44  0000              RAMBANK 0 @BITDATASEC, @BITDATASEC1
  45  0000              @HCCINIT	.section 'data'
  46  0000              @HCCINIT0	.section 'data'
  47  0000              @BITDATASEC	 .section 'data'
  48  0000              @BITDATASEC1	 .section 'data'
  49  0000              
  50  0000              #pragma debug scope 1 1
  51  0000              	extern __DELAY3:near
  52  0000              	extern __DELAYX3:near
  53  0000              	extern __DELAYX6:near
  54  0000              	extern __DELAYY5:near
  55  0000              	extern __DELAYY3:near
  56  0000              	extern _builtin_holtek_delay_2:byte
  57  0000              public _looupIndex
  58  0000              #pragma debug scope 2 1

"File: ENT_600.c     Assembler  Version HGASM0202      Page 2

  49  0000              #line 49 "C:\Users\Balaji\Documents\HTK_Project\ENT_600\ENT_600.c"
  49  0000              _looupIndex .section 'code'
  49  0000              _looupIndex proc
  49  0000              public _looupIndex_2
  49  0000  0002[           local _looupIndex_2 db 2 dup(?)	; 2,0
            00
            ]
  49  0002              #pragma debug variable 11 2 _looupIndex_2+0 "voltage"
  49  0000  0F07        	mov a,7
  49  0001  0080     E  	mov rf,a
  51  0002              #line 51 "C:\Users\Balaji\Documents\HTK_Project\ENT_600\ENT_600.c"
  51  0002  1F00     E  	clr ra
  51  0003              _L4:
  53  0003              #line 53 "C:\Users\Balaji\Documents\HTK_Project\ENT_600\ENT_600.c"
  53  0003  0700     E  	mov a,ra
  53  0004  0080     E  	mov rb,a
  53  0005  1F00     E  	clr rc
  53  0006  340A        	clr c
  53  0007  1A00     E  	rlca rb
  53  0008  0080     E  	mov rd,a
  53  0009  1A00     E  	rlca rc
  53  000A  0080     E  	mov re,a
  53  000B  340A        	clr c
  53  000C  1A80     E  	rlc rd
  53  000D  1A80     E  	rlc re
  53  000E  0700     E  	mov a,rb
  53  000F  0380     E  	addm a,rd
  53  0010  0700     E  	mov a,rc
  53  0011  1380     E  	adcm a,re
  53  0012  0F00     R  	mov a,low offset _lookupTable
  53  0013  0300     E  	add a,rd
  53  0014  0081        	mov mp,a
  53  0015  0F00     R  	mov a,high offset _lookupTable
  53  0016  1300     E  	adc a,re
  53  0017  0087        	mov sbp,a
  53  0018  2000     E  	call _Crom2Prom
  53  0019  0080     E  	mov rd,a
  53  001A  2000     E  	call _Crom2PromNext
  53  001B  0080     E  	mov re,a
  53  001C  0700     R  	mov a,_looupIndex_2[0]
  53  001D  0200     E  	sub a,rd
  53  001E  0700     R  	mov a,_looupIndex_2[1]
  53  001F  1200     E  	sbc a,re
  53  0020  1185        	swap acc
  53  0021  040A        	xor a,status
  53  0022  3D85        	sz acc.3
  53  0023  2800     R  	jmp _L2
  53  0024  1480     E  	inc rb
  53  0025  3D0A        	sz z
  53  0026  1480     E  	inc rc
  53  0027  340A        	clr c
  53  0028  1A00     E  	rlca rb
  53  0029  0080     E  	mov rd,a
  53  002A  1A00     E  	rlca rc
  53  002B  0080     E  	mov re,a
  53  002C  340A        	clr c
  53  002D  1A80     E  	rlc rd
  53  002E  1A80     E  	rlc re
  53  002F  0700     E  	mov a,rd
  53  0030  0380     E  	addm a,rb
"File: ENT_600.c     Assembler  Version HGASM0202      Page 3

  53  0031  0700     E  	mov a,re
  53  0032  1380     E  	adcm a,rc
  53  0033  0F00     R  	mov a,low offset _lookupTable
  53  0034  0300     E  	add a,rb
  53  0035  0081        	mov mp,a
  53  0036  0F00     R  	mov a,high offset _lookupTable
  53  0037  1300     E  	adc a,rc
  53  0038  0087        	mov sbp,a
  53  0039  2000     E  	call _Crom2Prom
  53  003A  0080     E  	mov rb,a
  53  003B  2000     E  	call _Crom2PromNext
  53  003C  0080     E  	mov rc,a
  53  003D  0700     R  	mov a,_looupIndex_2[0]
  53  003E  0200     E  	sub a,rb
  53  003F  0700     R  	mov a,_looupIndex_2[1]
  53  0040  1200     E  	sbc a,rc
  53  0041  1185        	swap acc
  53  0042  040A        	xor a,status
  53  0043  3D85        	sz acc.3
  53  0044  2800     R  	jmp _L3
  53  0045              _L2:
  51  0045              #line 51 "C:\Users\Balaji\Documents\HTK_Project\ENT_600\ENT_600.c"
  51  0045  1480     E  	inc ra
  51  0046  1780     E  	sdz rf
  51  0047  2800     R  	jmp _L4
  51  0048  0F07        	mov a,7
  51  0049  0080     E  	mov ra,a
  51  004A              _L3:
  59  004A              #line 59 "C:\Users\Balaji\Documents\HTK_Project\ENT_600\ENT_600.c"
  59  004A  0700     E  	mov a,ra
  59  004B  0003        	ret
  59  004C              _looupIndex endp
  59  004C              #line 59 "C:\Users\Balaji\Documents\HTK_Project\ENT_600\ENT_600.c"
  59  004C              #pragma debug scope 1 1
  59  004C              ___pa equ [20]
  59  004C              public _setState
  59  004C              #pragma debug scope 3 1
  62  004C              #line 62 "C:\Users\Balaji\Documents\HTK_Project\ENT_600\ENT_600.c"
  62  0000              _setState .section 'code'
  62  0000              _setState proc
  62  0000              public _setState_2
  62  0000  0002[           local _setState_2 db 2 dup(?)	; 1,1
            00
            ]
  62  0000  0080     R  	mov _setState_2[1],a
  62  0001              #pragma debug variable 8 3 _setState_2+1 "io"
  62  0001              #pragma debug variable 8 3 _setState_2+0 "state"
  63  0001              #line 63 "C:\Users\Balaji\Documents\HTK_Project\ENT_600\ENT_600.c"
  63  0001  0F01        	mov a,1
  63  0002  0200     R  	sub a,_setState_2[0]
  63  0003  380A        	snz c
  63  0004  2800     R  	jmp _L7
  63  0005              #pragma debug scope 4 3
  63  0005              ;begin block, line: 63.-1
  63  0005              #pragma debug scope 5 4
  63  0005              ;begin block, line: 63.-1
  65  0005              #line 65 "C:\Users\Balaji\Documents\HTK_Project\ENT_600\ENT_600.c"
  65  0005  0700     R  	mov a,_setState_2[1]
  65  0006  0A00        	sub a,0
  65  0007  3D0A        	sz z
"File: ENT_600.c     Assembler  Version HGASM0202      Page 4

  65  0008  2800     R  	jmp _L9
  65  0009  0A01        	sub a,(1)-(0)
  65  000A  3D0A        	sz z
  65  000B  2800     R  	jmp _L10
  65  000C  0700     R  	mov a,_setState_2[1]
  65  000D  0A02        	sub a,2
  65  000E  3D0A        	sz z
  65  000F  2800     R  	jmp _L11
  65  0010  0700     R  	mov a,_setState_2[1]
  65  0011  0A03        	sub a,3
  65  0012  390A        	snz z
  65  0013  2800     R  	jmp _L7
  77  0014              #line 77 "C:\Users\Balaji\Documents\HTK_Project\ENT_600\ENT_600.c"
  77  0014  0700     R  	mov a,_setState_2[0]
  77  0015  0E01        	and a,1
  77  0016  0080     E  	mov rb,a
  77  0017  1F00     E  	clr ra
  77  0018  1080     E  	sz rb
  77  0019  3000     E  	set ra.2
  77  001A  3514        	clr [20].2
  77  001B  2800     R  	jmp _L13
  77  001C              _L9:
  68  001C              #line 68 "C:\Users\Balaji\Documents\HTK_Project\ENT_600\ENT_600.c"
  68  001C  0700     R  	mov a,_setState_2[0]
  68  001D  0E01        	and a,1
  68  001E  0080     E  	mov ra,a
  68  001F  0700     E  	mov a,ra
  68  0020  0380     E  	addm a,ra
  68  0021  3494        	clr [20].1
  68  0022  2800     R  	jmp _L13
  68  0023              _L10:
  71  0023              #line 71 "C:\Users\Balaji\Documents\HTK_Project\ENT_600\ENT_600.c"
  71  0023  0700     R  	mov a,_setState_2[0]
  71  0024  0E01        	and a,1
  71  0025  0080     E  	mov ra,a
  71  0026  1900     E  	rra ra
  71  0027  1985        	rr acc
  71  0028  0EC0        	and a,0c0h
  71  0029  0080     E  	mov ra,a
  71  002A  3714        	clr [20].6
  71  002B  2800     R  	jmp _L13
  71  002C              _L11:
  74  002C              #line 74 "C:\Users\Balaji\Documents\HTK_Project\ENT_600\ENT_600.c"
  74  002C  0700     R  	mov a,_setState_2[0]
  74  002D  0E01        	and a,1
  74  002E  0080     E  	mov ra,a
  74  002F  1100     E  	swapa ra
  74  0030  1885        	rl acc
  74  0031  0EE0        	and a,0e0h
  74  0032  0080     E  	mov ra,a
  74  0033  3694        	clr [20].5
  74  0034              _L13:
  77  0034              #line 77 "C:\Users\Balaji\Documents\HTK_Project\ENT_600\ENT_600.c"
  77  0034  0700     E  	mov a,ra
  77  0035  0594        	orm a,[20]
  77  0036              _L7:
  77  0036              #pragma debug scope 4 3
  77  0036              #pragma debug scope 3 1
  77  0036  0003        	ret
  77  0037              _setState endp
"File: ENT_600.c     Assembler  Version HGASM0202      Page 5

  77  0037              #line 77 "C:\Users\Balaji\Documents\HTK_Project\ENT_600\ENT_600.c"
  77  0037              #pragma debug scope 1 1
  77  0037              public _readVoltage
  77  0037              #pragma debug scope 6 1
  84  0037              #line 84 "C:\Users\Balaji\Documents\HTK_Project\ENT_600\ENT_600.c"
  84  0000              _readVoltage .section 'code'
  84  0000              _readVoltage proc
  87  0000              #line 87 "C:\Users\Balaji\Documents\HTK_Project\ENT_600\ENT_600.c"
  87  0000  0F02        	mov a,2
  87  0001  2000     E  	call _readADC
  87  0002  0700     E  	mov a,ra
  87  0003  0080     E  	mov rd,a
  87  0004  0700     E  	mov a,rb
  87  0005  0080     E  	mov re,a
  89  0006              #line 89 "C:\Users\Balaji\Documents\HTK_Project\ENT_600\ENT_600.c"
  89  0006  340A        	clr c
  89  0007  1A00     E  	rlca rd
  89  0008  0080     E  	mov rb,a
  89  0009  1A00     E  	rlca re
  89  000A  0080     E  	mov rc,a
  89  000B  0700     E  	mov a,rd
  89  000C  0380     E  	addm a,rb
  89  000D  0700     E  	mov a,re
  89  000E  1380     E  	adcm a,rc
  89  000F  0F05        	mov a,5
  89  0010              _LI1:
  89  0010  340A        	clr c
  89  0011  1A80     E  	rlc rb
  89  0012  1A80     E  	rlc rc
  89  0013  1785        	sdz acc
  89  0014  2800     R  	jmp _LI1
  89  0015  0700     E  	mov a,rd
  89  0016  0380     E  	addm a,rb
  89  0017  0700     E  	mov a,re
  89  0018  1380     E  	adcm a,rc
  89  0019  3800     E  	snz rc.7
  89  001A  2800     R  	jmp _L15
  89  001B              #line 89 "C:\Users\Balaji\Documents\HTK_Project\ENT_600\ENT_600.c"
  89  001B  0FFF        	mov a,255
  89  001C  0380     E  	addm a,rb
  89  001D  0F03        	mov a,3
  89  001E  1380     E  	adcm a,rc
  89  001F              _L15:
  89  001F  1A00     E  	rlca rc  
  89  0020  1B80     E  	rrc rc  
  89  0021  1A00     E  	rlca rc  
  89  0022  1B00     E  	rrca rc  
  89  0023  0080     E  	mov rb,a  
  89  0024  1F00     E  	clr rc  
  89  0025  3C00     E  	sz rb.7  
  89  0026  1F80     E  	set rc
  89  0027  340A        	clr c
  89  0028  1A00     E  	rlca rb
  89  0029  0080     E  	mov rd,a
  89  002A  1A00     E  	rlca rc
  89  002B  0080     E  	mov re,a
  89  002C  340A        	clr c
  89  002D  1A80     E  	rlc rd
  89  002E  1A80     E  	rlc re
  91  002F              #line 91 "C:\Users\Balaji\Documents\HTK_Project\ENT_600\ENT_600.c"
"File: ENT_600.c     Assembler  Version HGASM0202      Page 6

  91  002F  0700     E  	mov a,rb
  91  0030  0300     E  	add a,rd
  91  0031  0080     E  	mov ra,a
  91  0032  0700     E  	mov a,rc
  91  0033  1300     E  	adc a,re
  91  0034  0080     E  	mov rb,a
  91  0035  0003        	ret
  91  0036              _readVoltage endp
  91  0036              #line 91 "C:\Users\Balaji\Documents\HTK_Project\ENT_600\ENT_600.c"
  91  0036              #pragma debug scope 1 1
  91  0036              public _initIO
  91  0036              #pragma debug scope 7 1
  94  0036              #line 94 "C:\Users\Balaji\Documents\HTK_Project\ENT_600\ENT_600.c"
  94  0000              _initIO .section 'code'
  94  0000              _initIO proc
  95  0000              #line 95 "C:\Users\Balaji\Documents\HTK_Project\ENT_600\ENT_600.c"
  95  0000  1F00     R  	clr _setState_2[0]
  95  0001  0F00        	mov a,0
  95  0002  2000     R  	call _setState
  96  0003              #line 96 "C:\Users\Balaji\Documents\HTK_Project\ENT_600\ENT_600.c"
  96  0003  1F00     R  	clr _setState_2[0]
  96  0004  0F01        	mov a,1
  96  0005  2000     R  	call _setState
  97  0006              #line 97 "C:\Users\Balaji\Documents\HTK_Project\ENT_600\ENT_600.c"
  97  0006  1F00     R  	clr _setState_2[0]
  97  0007  0F02        	mov a,2
  97  0008  2000     R  	call _setState
  98  0009              #line 98 "C:\Users\Balaji\Documents\HTK_Project\ENT_600\ENT_600.c"
  98  0009  1F00     R  	clr _setState_2[0]
  98  000A  0F03        	mov a,3
  98  000B  2000     R  	call _setState
  98  000C  0003        	ret
  98  000D              _initIO endp
  98  000D              #line 98 "C:\Users\Balaji\Documents\HTK_Project\ENT_600\ENT_600.c"
  98  000D              #pragma debug scope 1 1
  98  000D              public _main
  98  000D              #pragma debug scope 8 1
 102  000D              #line 102 "C:\Users\Balaji\Documents\HTK_Project\ENT_600\ENT_600.c"
 102  000D              IFDEF WITH_DEFAULT_STARTUP
 102  000D              extern _main_initial0:near
 102  000D              extern _main_startup:near
 102  000D              ENDIF
 102  000D              
 102  000D              ROMBANK 0 @start
 102  0000              @start .section com_l 'code'
 102  0000              _main_startup1:
 102  0000              @start .section com_e 'code'
 102  0000  2800     R  	jmp _main
 102  0001              
 102  0000              _main .section 'code'
 102  0000              _main proc
 102  0000  0002[           local _main_2 db 2 dup(?)
            00
            ]
 103  0002              #line 103 "C:\Users\Balaji\Documents\HTK_Project\ENT_600\ENT_600.c"
 103  0000  2000     R  	call _initIO
 104  0001              #line 104 "C:\Users\Balaji\Documents\HTK_Project\ENT_600\ENT_600.c"
 104  0001  2000     E  	call _initADC
 105  0002              #line 105 "C:\Users\Balaji\Documents\HTK_Project\ENT_600\ENT_600.c"
 105  0002              ;# 105 "C:\Users\Balaji\Documents\HTK_Project\ENT_600\ENT_600.c" 1
"File: ENT_600.c     Assembler  Version HGASM0202      Page 7

 105  0002              	IF (5 * 1000)>263690
 105  0002              ;# 105 "C:\Users\Balaji\Documents\HTK_Project\ENT_600\ENT_600.c" 1
 105  0002              	ERRMESSAGE 'the value (5 * 1000)of the argument exceeds the maxinum 263690'
 105  0002              	ENDIF
 105  0002              ;# 105 "C:\Users\Balaji\Documents\HTK_Project\ENT_600\ENT_600.c" 1
 105  0002              	IF (5 * 1000)<0
 105  0002              ;# 105 "C:\Users\Balaji\Documents\HTK_Project\ENT_600\ENT_600.c" 1
 105  0002              	ERRMESSAGE 'the value (5 * 1000) of the argument exceeds the mininum 0'
 105  0002              	ENDIF
 105  0002              ;# 105 "C:\Users\Balaji\Documents\HTK_Project\ENT_600\ENT_600.c" 1
 105  0002              	IF (5 * 1000)==0
 105  0002              ;# 105 "C:\Users\Balaji\Documents\HTK_Project\ENT_600\ENT_600.c" 1
 105  0002              	JMP $
 105  0002              	ENDIF
 105  0002              ;# 105 "C:\Users\Balaji\Documents\HTK_Project\ENT_600\ENT_600.c" 1
 105  0002              	IF (5 * 1000)==1
 105  0002              ;# 105 "C:\Users\Balaji\Documents\HTK_Project\ENT_600\ENT_600.c" 1
 105  0002              	NOP
 105  0002              	ENDIF
 105  0002              ;# 105 "C:\Users\Balaji\Documents\HTK_Project\ENT_600\ENT_600.c" 1
 105  0002              	IF (5 * 1000)==2
 105  0002              ;# 105 "C:\Users\Balaji\Documents\HTK_Project\ENT_600\ENT_600.c" 1
 105  0002              	NOP
 105  0002              ;# 105 "C:\Users\Balaji\Documents\HTK_Project\ENT_600\ENT_600.c" 1
 105  0002              	NOP
 105  0002              	ENDIF
 105  0002              ;# 105 "C:\Users\Balaji\Documents\HTK_Project\ENT_600\ENT_600.c" 1
 105  0002              	IF (5 * 1000)==3
 105  0002              ;# 105 "C:\Users\Balaji\Documents\HTK_Project\ENT_600\ENT_600.c" 1
 105  0002              	NOP
 105  0002              ;# 105 "C:\Users\Balaji\Documents\HTK_Project\ENT_600\ENT_600.c" 1
 105  0002              	NOP
 105  0002              ;# 105 "C:\Users\Balaji\Documents\HTK_Project\ENT_600\ENT_600.c" 1
 105  0002              	NOP
 105  0002              	ENDIF
 105  0002              ;# 105 "C:\Users\Balaji\Documents\HTK_Project\ENT_600\ENT_600.c" 1
 105  0002              	IF ((5 * 1000)<8) AND ((5 * 1000)>3)
 105  0002              ;# 105 "C:\Users\Balaji\Documents\HTK_Project\ENT_600\ENT_600.c" 1
 105  0002              	CALL __DELAY3 + 7 -(5 * 1000)
 105  0002              	ENDIF
 105  0002              ;# 105 "C:\Users\Balaji\Documents\HTK_Project\ENT_600\ENT_600.c" 1
 105  0002              	IF ((5 * 1000)< 0404h) AND ((5 * 1000)>7)
 105  0002              ;# 105 "C:\Users\Balaji\Documents\HTK_Project\ENT_600\ENT_600.c" 1
 105  0002              	MOV A,(5 * 1000)/4-1
 105  0002              ;# 105 "C:\Users\Balaji\Documents\HTK_Project\ENT_600\ENT_600.c" 1
 105  0002              	CALL __DELAYX3 + 3 -((5 * 1000) MOD 4)
 105  0002              	ENDIF
 105  0002              ;# 105 "C:\Users\Balaji\Documents\HTK_Project\ENT_600\ENT_600.c" 1
 105  0002              	IF ((5 * 1000)< 0x40B) AND ((5 * 1000)> 0403h)
 105  0002              ;# 105 "C:\Users\Balaji\Documents\HTK_Project\ENT_600\ENT_600.c" 1
 105  0002              	MOV A,0 
 105  0002              ;# 105 "C:\Users\Balaji\Documents\HTK_Project\ENT_600\ENT_600.c" 1
 105  0002              	CALL __DELAYX6 + 0x40a -(5 * 1000)
 105  0002              	ENDIF
 105  0002              ;# 105 "C:\Users\Balaji\Documents\HTK_Project\ENT_600\ENT_600.c" 1
 105  0002              	IF ((5 * 1000) >= 0x40b) AND (((((5 * 1000)-9)%0402h)/4+1)>256)
 105  0002              ;# 105 "C:\Users\Balaji\Documents\HTK_Project\ENT_600\ENT_600.c" 1
 105  0002              	MOV A,((5 * 1000)-9)/0402h
 105  0002              ;# 105 "C:\Users\Balaji\Documents\HTK_Project\ENT_600\ENT_600.c" 1
 105  0002              	MOV _builtin_holtek_delay_2,A
"File: ENT_600.c     Assembler  Version HGASM0202      Page 8

 105  0002              ;# 105 "C:\Users\Balaji\Documents\HTK_Project\ENT_600\ENT_600.c" 1
 105  0002              	MOV A,0
 105  0002              ;# 105 "C:\Users\Balaji\Documents\HTK_Project\ENT_600\ENT_600.c" 1
 105  0002              	CALL __DELAYY5 +5- ((((5 * 1000)-9)%0402h)%6)
 105  0002              	ENDIF
 105  0002              ;# 105 "C:\Users\Balaji\Documents\HTK_Project\ENT_600\ENT_600.c" 1
 105  0002              	IF ((5 * 1000) >= 0x40b) AND (((((5 * 1000)-9)%0402h)/4+1)<=256)
 105  0002              ;# 105 "C:\Users\Balaji\Documents\HTK_Project\ENT_600\ENT_600.c" 1
 105  0002  0F04        	MOV A,((5 * 1000)-9)/0402h
 105  0003              ;# 105 "C:\Users\Balaji\Documents\HTK_Project\ENT_600\ENT_600.c" 1
 105  0003  0080     E  	MOV _builtin_holtek_delay_2,A
 105  0004              ;# 105 "C:\Users\Balaji\Documents\HTK_Project\ENT_600\ENT_600.c" 1
 105  0004  0FDE        	MOV A,(((5 * 1000)-9)%0402h)/4+1
 105  0005              ;# 105 "C:\Users\Balaji\Documents\HTK_Project\ENT_600\ENT_600.c" 1
 105  0005  2000     E  	CALL __DELAYY3 +3-((((5 * 1000)-9)%0402h)%4)
 105  0006              	ENDIF
 105  0006              _L18:
 105  0006              #pragma debug scope 9 8
 105  0006              ;begin block, line: 105.-1
 109  0006              #line 109 "C:\Users\Balaji\Documents\HTK_Project\ENT_600\ENT_600.c"
 109  0006              ;# 109 "C:\Users\Balaji\Documents\HTK_Project\ENT_600\ENT_600.c" 1
 109  0006              	IF 100>263690
 109  0006              ;# 109 "C:\Users\Balaji\Documents\HTK_Project\ENT_600\ENT_600.c" 1
 109  0006              	ERRMESSAGE 'the value 100of the argument exceeds the maxinum 263690'
 109  0006              	ENDIF
 109  0006              ;# 109 "C:\Users\Balaji\Documents\HTK_Project\ENT_600\ENT_600.c" 1
 109  0006              	IF 100<0
 109  0006              ;# 109 "C:\Users\Balaji\Documents\HTK_Project\ENT_600\ENT_600.c" 1
 109  0006              	ERRMESSAGE 'the value 100 of the argument exceeds the mininum 0'
 109  0006              	ENDIF
 109  0006              ;# 109 "C:\Users\Balaji\Documents\HTK_Project\ENT_600\ENT_600.c" 1
 109  0006              	IF 100==0
 109  0006              ;# 109 "C:\Users\Balaji\Documents\HTK_Project\ENT_600\ENT_600.c" 1
 109  0006              	JMP $
 109  0006              	ENDIF
 109  0006              ;# 109 "C:\Users\Balaji\Documents\HTK_Project\ENT_600\ENT_600.c" 1
 109  0006              	IF 100==1
 109  0006              ;# 109 "C:\Users\Balaji\Documents\HTK_Project\ENT_600\ENT_600.c" 1
 109  0006              	NOP
 109  0006              	ENDIF
 109  0006              ;# 109 "C:\Users\Balaji\Documents\HTK_Project\ENT_600\ENT_600.c" 1
 109  0006              	IF 100==2
 109  0006              ;# 109 "C:\Users\Balaji\Documents\HTK_Project\ENT_600\ENT_600.c" 1
 109  0006              	NOP
 109  0006              ;# 109 "C:\Users\Balaji\Documents\HTK_Project\ENT_600\ENT_600.c" 1
 109  0006              	NOP
 109  0006              	ENDIF
 109  0006              ;# 109 "C:\Users\Balaji\Documents\HTK_Project\ENT_600\ENT_600.c" 1
 109  0006              	IF 100==3
 109  0006              ;# 109 "C:\Users\Balaji\Documents\HTK_Project\ENT_600\ENT_600.c" 1
 109  0006              	NOP
 109  0006              ;# 109 "C:\Users\Balaji\Documents\HTK_Project\ENT_600\ENT_600.c" 1
 109  0006              	NOP
 109  0006              ;# 109 "C:\Users\Balaji\Documents\HTK_Project\ENT_600\ENT_600.c" 1
 109  0006              	NOP
 109  0006              	ENDIF
 109  0006              ;# 109 "C:\Users\Balaji\Documents\HTK_Project\ENT_600\ENT_600.c" 1
 109  0006              	IF (100<8) AND (100>3)
 109  0006              ;# 109 "C:\Users\Balaji\Documents\HTK_Project\ENT_600\ENT_600.c" 1
 109  0006              	CALL __DELAY3 + 7 -100
"File: ENT_600.c     Assembler  Version HGASM0202      Page 9

 109  0006              	ENDIF
 109  0006              ;# 109 "C:\Users\Balaji\Documents\HTK_Project\ENT_600\ENT_600.c" 1
 109  0006              	IF (100< 0404h) AND (100>7)
 109  0006              ;# 109 "C:\Users\Balaji\Documents\HTK_Project\ENT_600\ENT_600.c" 1
 109  0006  0F18        	MOV A,100/4-1
 109  0007              ;# 109 "C:\Users\Balaji\Documents\HTK_Project\ENT_600\ENT_600.c" 1
 109  0007  2000     E  	CALL __DELAYX3 + 3 -(100 MOD 4)
 109  0008              	ENDIF
 109  0008              ;# 109 "C:\Users\Balaji\Documents\HTK_Project\ENT_600\ENT_600.c" 1
 109  0008              	IF (100< 0x40B) AND (100> 0403h)
 109  0008              ;# 109 "C:\Users\Balaji\Documents\HTK_Project\ENT_600\ENT_600.c" 1
 109  0008              	MOV A,0 
 109  0008              ;# 109 "C:\Users\Balaji\Documents\HTK_Project\ENT_600\ENT_600.c" 1
 109  0008              	CALL __DELAYX6 + 0x40a -100
 109  0008              	ENDIF
 109  0008              ;# 109 "C:\Users\Balaji\Documents\HTK_Project\ENT_600\ENT_600.c" 1
 109  0008              	IF (100 >= 0x40b) AND ((((100-9)%0402h)/4+1)>256)
 109  0008              ;# 109 "C:\Users\Balaji\Documents\HTK_Project\ENT_600\ENT_600.c" 1
 109  0008              	MOV A,(100-9)/0402h
 109  0008              ;# 109 "C:\Users\Balaji\Documents\HTK_Project\ENT_600\ENT_600.c" 1
 109  0008              	MOV _builtin_holtek_delay_2,A
 109  0008              ;# 109 "C:\Users\Balaji\Documents\HTK_Project\ENT_600\ENT_600.c" 1
 109  0008              	MOV A,0
 109  0008              ;# 109 "C:\Users\Balaji\Documents\HTK_Project\ENT_600\ENT_600.c" 1
 109  0008              	CALL __DELAYY5 +5- (((100-9)%0402h)%6)
 109  0008              	ENDIF
 109  0008              ;# 109 "C:\Users\Balaji\Documents\HTK_Project\ENT_600\ENT_600.c" 1
 109  0008              	IF (100 >= 0x40b) AND ((((100-9)%0402h)/4+1)<=256)
 109  0008              ;# 109 "C:\Users\Balaji\Documents\HTK_Project\ENT_600\ENT_600.c" 1
 109  0008              	MOV A,(100-9)/0402h
 109  0008              ;# 109 "C:\Users\Balaji\Documents\HTK_Project\ENT_600\ENT_600.c" 1
 109  0008              	MOV _builtin_holtek_delay_2,A
 109  0008              ;# 109 "C:\Users\Balaji\Documents\HTK_Project\ENT_600\ENT_600.c" 1
 109  0008              	MOV A,((100-9)%0402h)/4+1
 109  0008              ;# 109 "C:\Users\Balaji\Documents\HTK_Project\ENT_600\ENT_600.c" 1
 109  0008              	CALL __DELAYY3 +3-(((100-9)%0402h)%4)
 109  0008              	ENDIF
 112  0008              #line 112 "C:\Users\Balaji\Documents\HTK_Project\ENT_600\ENT_600.c"
 112  0008  2000     R  	call _readVoltage
 112  0009  0700     E  	mov a,ra
 112  000A  0080     R  	mov _looupIndex_2[0],a
 112  000B  0700     E  	mov a,rb
 112  000C  0080     R  	mov _looupIndex_2[1],a
 112  000D  2000     R  	call _looupIndex
 112  000E  0080     E  	mov rb,a
 115  000F              #line 115 "C:\Users\Balaji\Documents\HTK_Project\ENT_600\ENT_600.c"
 115  000F  1F00     E  	clr rc
 115  0010  340A        	clr c
 115  0011  1A00     E  	rlca rb
 115  0012  0080     E  	mov rd,a
 115  0013  1A00     E  	rlca rc
 115  0014  0080     E  	mov re,a
 115  0015  340A        	clr c
 115  0016  1A80     E  	rlc rd
 115  0017  1A80     E  	rlc re
 115  0018  0700     E  	mov a,rb
 115  0019  0300     E  	add a,rd
 115  001A  0080     R  	mov _main_2[0],a
 115  001B  0700     E  	mov a,rc
 115  001C  1300     E  	adc a,re
"File: ENT_600.c     Assembler  Version HGASM0202      Page 10

 115  001D  0080     R  	mov _main_2[1],a
 115  001E  0F00     R  	mov a,low (offset _lookupTable+2)
 115  001F  0300     R  	add a,_main_2[0]
 115  0020  0081        	mov mp,a
 115  0021  0F00     R  	mov a,high (offset _lookupTable+2)
 115  0022  1300     R  	adc a,_main_2[1]
 115  0023  0087        	mov sbp,a
 115  0024  2000     E  	call _Crom2Prom
 115  0025  0080     R  	mov _setState_2[0],a
 115  0026  0F00        	mov a,0
 115  0027  2000     R  	call _setState
 116  0028              #line 116 "C:\Users\Balaji\Documents\HTK_Project\ENT_600\ENT_600.c"
 116  0028  0F00     R  	mov a,low (offset _lookupTable+3)
 116  0029  0300     R  	add a,_main_2[0]
 116  002A  0081        	mov mp,a
 116  002B  0F00     R  	mov a,high (offset _lookupTable+3)
 116  002C  1300     R  	adc a,_main_2[1]
 116  002D  0087        	mov sbp,a
 116  002E  2000     E  	call _Crom2Prom
 116  002F  0080     R  	mov _setState_2[0],a
 116  0030  0F01        	mov a,1
 116  0031  2000     R  	call _setState
 117  0032              #line 117 "C:\Users\Balaji\Documents\HTK_Project\ENT_600\ENT_600.c"
 117  0032  0F00     R  	mov a,low (offset _lookupTable+4)
 117  0033  0380     R  	addm a,_main_2[0]
 117  0034  0F00     R  	mov a,high (offset _lookupTable+4)
 117  0035  1380     R  	adcm a,_main_2[1]
 117  0036  0700     R  	mov a,_main_2[0]
 117  0037  0081        	mov mp,a
 117  0038  0700     R  	mov a,_main_2[1]
 117  0039  0087        	mov sbp,a
 117  003A  2000     E  	call _Crom2Prom
 117  003B  0080     R  	mov _setState_2[0],a
 117  003C  0F02        	mov a,2
 117  003D  2000     R  	call _setState
 119  003E              #line 119 "C:\Users\Balaji\Documents\HTK_Project\ENT_600\ENT_600.c"
 119  003E  0700     R  	mov a,_main_2[0]
 119  003F  0081        	mov mp,a
 119  0040  0700     R  	mov a,_main_2[1]
 119  0041  0087        	mov sbp,a
 119  0042  2000     E  	call _Crom2Prom
 119  0043  0080     R  	mov _setState_2[0],a
 119  0044  0F03        	mov a,3
 119  0045  2000     R  	call _setState
 119  0046  2800     R  	jmp _L18
 119  0047              #pragma debug scope 8 1
 119  0047  2800     R  	jmp $
 119  0048              _main endp
 119  0048              
 119  0048              @dummy endp
 119  0048              
 119  0048              #line 119 "C:\Users\Balaji\Documents\HTK_Project\ENT_600\ENT_600.c"
 119  0048              #pragma debug scope 1 1
 119  0048              public _lookupTable
 119  0000              @HCCINIT	.section 'data'
  37  0000              #line 37 "C:\Users\Balaji\Documents\HTK_Project\ENT_600\ENT_600.c"
  37  0000              @HCCINIT .section 'data'
  37  0000              _lookupTable label byte
  37  0000              #pragma debug struct_end
  37  0000              #pragma debug struct_end
"File: ENT_600.c     Assembler  Version HGASM0202      Page 11

  37  0000              #pragma debug array 43 42 8 1
  37  0000              #pragma debug array 43 42 8 1
  37  0000              #pragma debug variable 43 1 _lookupTable "lookupTable"
  37  0000              	dw 0
  37  0000              @ROMDATA_BASE .section inpage 'code'
  37  0000  0900        	ret a, LOW 0
  37  0001  0900        	ret a, HIGH 0
  37  0002              @HCCINIT .section 'data'
  37  0002              	db 0
  37  0002              @ROMDATA_BASE .section inpage 'code'
  37  0002  0900        	ret a,0
  37  0003              @HCCINIT .section 'data'
  37  0003              	db 0
  37  0003              @ROMDATA_BASE .section inpage 'code'
  37  0003  0900        	ret a,0
  37  0004              @HCCINIT .section 'data'
  37  0004              	db 0
  37  0004              @ROMDATA_BASE .section inpage 'code'
  37  0004  0900        	ret a,0
  37  0005              @HCCINIT .section 'data'
  37  0005              	dw 69
  37  0005              @ROMDATA_BASE .section inpage 'code'
  37  0005  0945        	ret a, LOW 69
  37  0006  0900        	ret a, HIGH 69
  37  0007              @HCCINIT .section 'data'
  37  0007              	db 0
  37  0007              @ROMDATA_BASE .section inpage 'code'
  37  0007  0900        	ret a,0
  37  0008              @HCCINIT .section 'data'
  37  0008              	db 0
  37  0008              @ROMDATA_BASE .section inpage 'code'
  37  0008  0900        	ret a,0
  37  0009              @HCCINIT .section 'data'
  37  0009              	db 0
  37  0009              @ROMDATA_BASE .section inpage 'code'
  37  0009  0900        	ret a,0
  37  000A              @HCCINIT .section 'data'
  37  000A              	dw 136
  37  000A              @ROMDATA_BASE .section inpage 'code'
  37  000A  0988        	ret a, LOW 136
  37  000B  0900        	ret a, HIGH 136
  37  000C              @HCCINIT .section 'data'
  37  000C              	db 0
  37  000C              @ROMDATA_BASE .section inpage 'code'
  37  000C  0900        	ret a,0
  37  000D              @HCCINIT .section 'data'
  37  000D              	db 0
  37  000D              @ROMDATA_BASE .section inpage 'code'
  37  000D  0900        	ret a,0
  37  000E              @HCCINIT .section 'data'
  37  000E              	db 0
  37  000E              @ROMDATA_BASE .section inpage 'code'
  37  000E  0900        	ret a,0
  37  000F              @HCCINIT .section 'data'
  37  000F              	dw 209
  37  000F              @ROMDATA_BASE .section inpage 'code'
  37  000F  09D1        	ret a, LOW 209
  37  0010  0900        	ret a, HIGH 209
  37  0011              @HCCINIT .section 'data'
  37  0011              	db 0
"File: ENT_600.c     Assembler  Version HGASM0202      Page 12

  37  0011              @ROMDATA_BASE .section inpage 'code'
  37  0011  0900        	ret a,0
  37  0012              @HCCINIT .section 'data'
  37  0012              	db 0
  37  0012              @ROMDATA_BASE .section inpage 'code'
  37  0012  0900        	ret a,0
  37  0013              @HCCINIT .section 'data'
  37  0013              	db 0
  37  0013              @ROMDATA_BASE .section inpage 'code'
  37  0013  0900        	ret a,0
  37  0014              @HCCINIT .section 'data'
  37  0014              	dw 223
  37  0014              @ROMDATA_BASE .section inpage 'code'
  37  0014  09DF        	ret a, LOW 223
  37  0015  0900        	ret a, HIGH 223
  37  0016              @HCCINIT .section 'data'
  37  0016              	db 0
  37  0016              @ROMDATA_BASE .section inpage 'code'
  37  0016  0900        	ret a,0
  37  0017              @HCCINIT .section 'data'
  37  0017              	db 0
  37  0017              @ROMDATA_BASE .section inpage 'code'
  37  0017  0900        	ret a,0
  37  0018              @HCCINIT .section 'data'
  37  0018              	db 0
  37  0018              @ROMDATA_BASE .section inpage 'code'
  37  0018  0900        	ret a,0
  37  0019              @HCCINIT .section 'data'
  37  0019              	dw 227
  37  0019              @ROMDATA_BASE .section inpage 'code'
  37  0019  09E3        	ret a, LOW 227
  37  001A  0900        	ret a, HIGH 227
  37  001B              @HCCINIT .section 'data'
  37  001B              	db 0
  37  001B              @ROMDATA_BASE .section inpage 'code'
  37  001B  0900        	ret a,0
  37  001C              @HCCINIT .section 'data'
  37  001C              	db 0
  37  001C              @ROMDATA_BASE .section inpage 'code'
  37  001C  0900        	ret a,0
  37  001D              @HCCINIT .section 'data'
  37  001D              	db 0
  37  001D              @ROMDATA_BASE .section inpage 'code'
  37  001D  0900        	ret a,0
  37  001E              @HCCINIT .section 'data'
  37  001E              	dw 286
  37  001E              @ROMDATA_BASE .section inpage 'code'
  37  001E  091E        	ret a, LOW 286
  37  001F  0901        	ret a, HIGH 286
  37  0020              @HCCINIT .section 'data'
  37  0020              	db 0
  37  0020              @ROMDATA_BASE .section inpage 'code'
  37  0020  0900        	ret a,0
  37  0021              @HCCINIT .section 'data'
  37  0021              	db 0
  37  0021              @ROMDATA_BASE .section inpage 'code'
  37  0021  0900        	ret a,0
  37  0022              @HCCINIT .section 'data'
  37  0022              	db 0
  37  0022              @ROMDATA_BASE .section inpage 'code'
"File: ENT_600.c     Assembler  Version HGASM0202      Page 13

  37  0022  0900        	ret a,0
  37  0023              @HCCINIT .section 'data'
  37  0023              	dw 304
  37  0023              @ROMDATA_BASE .section inpage 'code'
  37  0023  0930        	ret a, LOW 304
  37  0024  0901        	ret a, HIGH 304
  37  0025              @HCCINIT .section 'data'
  37  0025              	db 0
  37  0025              @ROMDATA_BASE .section inpage 'code'
  37  0025  0900        	ret a,0
  37  0026              @HCCINIT .section 'data'
  37  0026              	db 0
  37  0026              @ROMDATA_BASE .section inpage 'code'
  37  0026  0900        	ret a,0
  37  0027              @HCCINIT .section 'data'
  37  0027              	db 0
  37  0027              @ROMDATA_BASE .section inpage 'code'
  37  0027  0900        	ret a,0
  37  0028              @HCCINIT .section 'data'
  37  0028              #pragma debug struct_end
  37  0028              #pragma debug struct_end
  37  0028              #pragma debug union_end
  37  0028              #pragma debug union_end
  37  0028              #pragma debug variable 45 1 ___pa "__pa" 1
 102  0028              #line 102 "C:\Users\Balaji\Documents\HTK_Project\ENT_600\ENT_600.c"
 102  0000              @code .section at 0 'code'
 102  0000  2800     R  	jmp _main_startup1
 102  0001              
 102  0001              extern _readADC:near
 102  0001              extern _initADC:near
 102  0001              
 102  0001              ; 
 102  0001              ; Generated by holtek-gcc v3.19, Sun Apr 03 15:17:44 2022
 102  0001              ; Rebuild 718
 102  0001              ; end of file


        0 Errors, 0